; Function Attrs: mustprogress nounwind uwtable
define dso_local void @_ZN12VectorFilterD0Ev(ptr noundef nonnull align 8 dereferenceable(52) %0) unnamed_addr #3 align 2 personality ptr @__gxx_personality_v0 {
  store ptr getelementptr inbounds ({ [5 x ptr] }, ptr @_ZTV12VectorFilter, i64 0, i32 0, i64 2), ptr %0, align 8
  %2 = getelementptr inbounds i8, ptr %0, i64 16
  %3 = load ptr, ptr %2, align 8
  %.not.i.i.i.i = icmp eq ptr %3, null
  br i1 %.not.i.i.i.i, label %_ZN12VectorFilterD2Ev.exit, label %4

4:                                                ; preds = %1
  tail call void @_ZdlPv(ptr noundef nonnull %3) #14
  br label %_ZN12VectorFilterD2Ev.exit

_ZN12VectorFilterD2Ev.exit:                       ; preds = %1, %4
  tail call void @_ZN6FilterD2Ev(ptr noundef nonnull align 8 dereferenceable(16) %0) #13
  tail call void @_ZdlPv(ptr noundef nonnull %0) #14
  ret void
}